target datalayout = "e-m:e-p270:32:32-p271:32:32-p272:64:64-i64:64-i128:128-f80:128-n8:16:32:64-S128"
target triple = "x86_64-pc-linux-gnu"

%"class.sat::model_converter" = type { %class.vector, i32, %class.svector, ptr, %class.svector.1 }
%class.vector = type { ptr }
%class.svector = type { %class.vector.0 }
%class.vector.0 = type { ptr }
%class.svector.1 = type { %class.vector.2 }
%class.vector.2 = type { ptr }

; Function Attrs: mustprogress nounwind uwtable
define linkonce_odr hidden noundef zeroext i1 @_ZNK6vectorISt4pairIjN3sat7literalEELb0EjE5emptyEv(ptr noundef nonnull align 8 dereferenceable(8) %0) #6 comdat align 2 {
  %2 = alloca ptr, align 8
  store ptr %0, ptr %2, align 8, !tbaa !189
  %3 = load ptr, ptr %2, align 8
  %4 = getelementptr inbounds nuw %class.vector.2, ptr %3, i32 0, i32 0
  %5 = load ptr, ptr %4, align 8, !tbaa !191
  %6 = icmp eq ptr %5, null
  br i1 %6, label %13, label %7

7:                                                ; preds = %1
  %8 = getelementptr inbounds nuw %class.vector.2, ptr %3, i32 0, i32 0
  %9 = load ptr, ptr %8, align 8, !tbaa !191
  %10 = getelementptr inbounds i32, ptr %9, i64 -1
  %11 = load i32, ptr %10, align 4, !tbaa !20
  %12 = icmp eq i32 %11, 0
  br label %13

13:                                               ; preds = %7, %1
  %14 = phi i1 [ true, %1 ], [ %12, %7 ]
  ret i1 %14
}

; Function Attrs: mustprogress nounwind uwtable
define linkonce_odr hidden noundef nonnull align 8 dereferenceable(8) ptr @_ZN3sat15model_converter6stackvEv(ptr noundef nonnull align 8 dereferenceable(40) %0) #6 comdat align 2 {
  %2 = alloca ptr, align 8
  store ptr %0, ptr %2, align 8, !tbaa !3
  %3 = load ptr, ptr %2, align 8
  %4 = getelementptr inbounds nuw %"class.sat::model_converter", ptr %3, i32 0, i32 4
  ret ptr %4
}

; Function Attrs: mustprogress uwtable
define hidden void @_ZN3sat15model_converter7add_ateERK7svectorINS_7literalEjE(ptr noundef nonnull align 8 dereferenceable(40) %0, ptr noundef nonnull align 8 dereferenceable(8) %1) #4 align 2 {
  %3 = alloca ptr, align 8
  %4 = alloca ptr, align 8
  store ptr %0, ptr %3, align 8, !tbaa !3
  store ptr %1, ptr %4, align 8, !tbaa !178
  %5 = load ptr, ptr %3, align 8
  %6 = call noundef nonnull align 8 dereferenceable(8) ptr @_ZN3sat15model_converter6stackvEv(ptr noundef nonnull align 8 dereferenceable(40) %5)
  %7 = call noundef zeroext i1 @_ZNK6vectorISt4pairIjN3sat7literalEELb0EjE5emptyEv(ptr noundef nonnull align 8 dereferenceable(8) %6)
  br i1 %7, label %8, label %9

8:                                                ; preds = %2
  br label %12

9:                                                ; preds = %2
  %10 = call noundef nonnull align 8 dereferenceable(32) ptr @_ZN3sat15model_converter2mkENS0_4kindEj(ptr noundef nonnull align 8 dereferenceable(40) %5, i32 noundef 5, i32 noundef 2147483647)
  %11 = load ptr, ptr %4, align 8, !tbaa !178
  call void @_ZN3sat15model_converter6insertERNS0_5entryERK7svectorINS_7literalEjE(ptr noundef nonnull align 8 dereferenceable(40) %5, ptr noundef nonnull align 8 dereferenceable(32) %10, ptr noundef nonnull align 8 dereferenceable(8) %11)
  br label %12

12:                                               ; preds = %9, %8
  ret void
}