; Function Attrs: mustprogress uwtable
define hidden void @_ZN3sat15model_converter7add_ateERK7svectorINS_7literalEjE(ptr noundef nonnull align 8 dereferenceable(40) %0, ptr noundef nonnull readonly align 8 captures(none) dereferenceable(8) %1) local_unnamed_addr #3 align 2 {
  %3 = getelementptr inbounds nuw i8, ptr %0, i64 32
  %4 = load ptr, ptr %3, align 8, !tbaa !180
  %5 = icmp eq ptr %4, null
  br i1 %5, label %_ZNK6vectorISt4pairIjN3sat7literalEELb0EjE5emptyEv.exit.thread, label %_ZNK6vectorISt4pairIjN3sat7literalEELb0EjE5emptyEv.exit

_ZNK6vectorISt4pairIjN3sat7literalEELb0EjE5emptyEv.exit: ; preds = %2
  %6 = getelementptr inbounds i8, ptr %4, i64 -4
  %7 = load i32, ptr %6, align 4, !tbaa !9
  %8 = icmp eq i32 %7, 0
  br i1 %8, label %_ZNK6vectorISt4pairIjN3sat7literalEELb0EjE5emptyEv.exit.thread, label %9

9:                                                ; preds = %_ZNK6vectorISt4pairIjN3sat7literalEELb0EjE5emptyEv.exit
  %10 = tail call noundef nonnull align 8 dereferenceable(32) ptr @_ZN3sat15model_converter2mkENS0_4kindEj(ptr noundef nonnull align 8 dereferenceable(40) %0, i32 noundef 5, i32 noundef 2147483647)
  tail call void @_ZN3sat15model_converter6insertERNS0_5entryERK7svectorINS_7literalEjE(ptr noundef nonnull align 8 dereferenceable(40) %0, ptr noundef nonnull align 8 dereferenceable(32) %10, ptr noundef nonnull align 8 dereferenceable(8) %1)
  br label %_ZNK6vectorISt4pairIjN3sat7literalEELb0EjE5emptyEv.exit.thread

_ZNK6vectorISt4pairIjN3sat7literalEELb0EjE5emptyEv.exit.thread: ; preds = %2, %_ZNK6vectorISt4pairIjN3sat7literalEELb0EjE5emptyEv.exit, %9
  ret void
}